target datalayout = "e-m:e-p270:32:32-p271:32:32-p272:64:64-i64:64-i128:128-f80:128-n8:16:32:64-S128"
target triple = "x86_64-pc-linux-gnu"

%struct.slurm_msg = type { %struct.sockaddr_storage, ptr, i32, i32, i32, i8, i32, i8, i32, ptr, ptr, i32, ptr, ptr, i16, i8, i16, i16, %struct.forward, ptr, %struct.sockaddr_storage, ptr }
%struct.forward = type { %struct.slurm_node_alias_addrs_t, i16, i16, ptr, i32, i16, i16 }
%struct.slurm_node_alias_addrs_t = type { i64, ptr, ptr, i32, ptr }
%struct.sockaddr_storage = type { i16, [118 x i8], i64 }
%struct.set_debug_flags_msg = type { i64, i64 }
%struct.return_code_msg = type { i32 }

@working_cluster_rec = external global ptr, align 8

; Function Attrs: nounwind uwtable
define dso_local i32 @slurm_set_debugflags(i64 noundef %0, i64 noundef %1) #0 {
  %3 = alloca i32, align 4
  %4 = alloca i64, align 8
  %5 = alloca i64, align 8
  %6 = alloca i32, align 4
  %7 = alloca %struct.slurm_msg, align 8
  %8 = alloca %struct.slurm_msg, align 8
  %9 = alloca %struct.set_debug_flags_msg, align 8
  %10 = alloca i32, align 4
  store i64 %0, ptr %4, align 8
  store i64 %1, ptr %5, align 8
  call void @llvm.lifetime.start.p0(i64 4, ptr %6) #6
  call void @llvm.lifetime.start.p0(i64 424, ptr %7) #6
  call void @llvm.lifetime.start.p0(i64 424, ptr %8) #6
  call void @llvm.lifetime.start.p0(i64 16, ptr %9) #6
  call void @slurm_msg_t_init(ptr noundef %7)
  call void @slurm_msg_t_init(ptr noundef %8)
  call void @llvm.memset.p0.i64(ptr align 8 %9, i8 0, i64 16, i1 false)
  %11 = load i64, ptr %5, align 8
  %12 = getelementptr inbounds nuw %struct.set_debug_flags_msg, ptr %9, i32 0, i32 0
  store i64 %11, ptr %12, align 8
  %13 = load i64, ptr %4, align 8
  %14 = getelementptr inbounds nuw %struct.set_debug_flags_msg, ptr %9, i32 0, i32 1
  store i64 %13, ptr %14, align 8
  %15 = getelementptr inbounds nuw %struct.slurm_msg, ptr %7, i32 0, i32 16
  store i16 1014, ptr %15, align 4
  %16 = getelementptr inbounds nuw %struct.slurm_msg, ptr %7, i32 0, i32 13
  store ptr %9, ptr %16, align 8
  %17 = load ptr, ptr @working_cluster_rec, align 8
  %18 = call i32 @slurm_send_recv_controller_msg(ptr noundef %7, ptr noundef %8, ptr noundef %17)
  %19 = icmp slt i32 %18, 0
  br i1 %19, label %20, label %21

20:                                               ; preds = %2
  store i32 -1, ptr %3, align 4
  store i32 1, ptr %10, align 4
  br label %50

21:                                               ; preds = %2
  %22 = getelementptr inbounds nuw %struct.slurm_msg, ptr %8, i32 0, i32 16
  %23 = load i16, ptr %22, align 4
  %24 = zext i16 %23 to i32
  switch i32 %24, label %44 [
    i32 8001, label %25
  ]

25:                                               ; preds = %21
  %26 = getelementptr inbounds nuw %struct.slurm_msg, ptr %8, i32 0, i32 13
  %27 = load ptr, ptr %26, align 8
  %28 = getelementptr inbounds nuw %struct.return_code_msg, ptr %27, i32 0, i32 0
  %29 = load i32, ptr %28, align 4
  store i32 %29, ptr %6, align 4
  %30 = getelementptr inbounds nuw %struct.slurm_msg, ptr %8, i32 0, i32 13
  %31 = load ptr, ptr %30, align 8
  call void @slurm_free_return_code_msg(ptr noundef %31)
  %32 = load i32, ptr %6, align 4
  %33 = icmp ne i32 %32, 0
  br i1 %33, label %34, label %43

34:                                               ; preds = %25
  br label %35

35:                                               ; preds = %34
  %36 = load i32, ptr %6, align 4
  %37 = call ptr @__errno_location() #7
  store i32 %36, ptr %37, align 4
  %38 = load i32, ptr %6, align 4
  %39 = icmp ne i32 %38, 0
  %40 = select i1 %39, i32 -1, i32 0
  store i32 %40, ptr %3, align 4
  store i32 1, ptr %10, align 4
  br label %50

41:                                               ; No predecessors!
  br label %42

42:                                               ; preds = %41
  br label %43

43:                                               ; preds = %42, %25
  br label %49

44:                                               ; preds = %21
  br label %45

45:                                               ; preds = %44
  %46 = call ptr @__errno_location() #7
  store i32 1000, ptr %46, align 4
  store i32 -1, ptr %3, align 4
  store i32 1, ptr %10, align 4
  br label %50

47:                                               ; No predecessors!
  br label %48

48:                                               ; preds = %47
  br label %49

49:                                               ; preds = %48, %43
  store i32 0, ptr %3, align 4
  store i32 1, ptr %10, align 4
  br label %50

50:                                               ; preds = %49, %45, %35, %20
  call void @llvm.lifetime.end.p0(i64 16, ptr %9) #6
  call void @llvm.lifetime.end.p0(i64 424, ptr %8) #6
  call void @llvm.lifetime.end.p0(i64 424, ptr %7) #6
  call void @llvm.lifetime.end.p0(i64 4, ptr %6) #6
  %51 = load i32, ptr %3, align 4
  ret i32 %51
}