; Function Attrs: nounwind uwtable
define dso_local range(i32 -1, 1) i32 @slurm_set_debugflags(i64 noundef %0, i64 noundef %1) local_unnamed_addr #0 {
  %3 = alloca %struct.slurm_msg, align 8
  %4 = alloca %struct.slurm_msg, align 8
  %5 = alloca %struct.set_debug_flags_msg, align 8
  call void @llvm.lifetime.start.p0(i64 424, ptr nonnull %3) #6
  call void @llvm.lifetime.start.p0(i64 424, ptr nonnull %4) #6
  call void @llvm.lifetime.start.p0(i64 16, ptr nonnull %5) #6
  call void @slurm_msg_t_init(ptr noundef nonnull %3) #6
  call void @slurm_msg_t_init(ptr noundef nonnull %4) #6
  store i64 %1, ptr %5, align 8
  %6 = getelementptr inbounds nuw i8, ptr %5, i64 8
  store i64 %0, ptr %6, align 8
  %7 = getelementptr inbounds nuw i8, ptr %3, i64 212
  store i16 1014, ptr %7, align 4
  %8 = getelementptr inbounds nuw i8, ptr %3, i64 200
  store ptr %5, ptr %8, align 8
  %9 = load ptr, ptr @working_cluster_rec, align 8
  %10 = call i32 @slurm_send_recv_controller_msg(ptr noundef nonnull %3, ptr noundef nonnull %4, ptr noundef %9) #6
  %11 = icmp slt i32 %10, 0
  br i1 %11, label %20, label %12

12:                                               ; preds = %2
  %13 = getelementptr inbounds nuw i8, ptr %4, i64 212
  %14 = load i16, ptr %13, align 4
  %cond = icmp eq i16 %14, 8001
  br i1 %cond, label %15, label %.sink.split

15:                                               ; preds = %12
  %16 = getelementptr inbounds nuw i8, ptr %4, i64 200
  %17 = load ptr, ptr %16, align 8
  %18 = load i32, ptr %17, align 4
  call void @slurm_free_return_code_msg(ptr noundef nonnull %17) #6
  %.not = icmp eq i32 %18, 0
  br i1 %.not, label %20, label %.sink.split

.sink.split:                                      ; preds = %12, %15
  %.sink = phi i32 [ %18, %15 ], [ 1000, %12 ]
  %19 = tail call ptr @__errno_location() #7
  store i32 %.sink, ptr %19, align 4
  br label %20

20:                                               ; preds = %.sink.split, %15, %2
  %.0 = phi i32 [ -1, %2 ], [ 0, %15 ], [ -1, %.sink.split ]
  call void @llvm.lifetime.end.p0(i64 16, ptr nonnull %5) #6
  call void @llvm.lifetime.end.p0(i64 424, ptr nonnull %4) #6
  call void @llvm.lifetime.end.p0(i64 424, ptr nonnull %3) #6
  ret i32 %.0
}